target datalayout = "e-m:e-p270:32:32-p271:32:32-p272:64:64-i64:64-i128:128-f80:128-n8:16:32:64-S128"
target triple = "x86_64-pc-linux-gnu"

%struct.Abc_Ntk_t_ = type { i32, i32, ptr, ptr, ptr, ptr, ptr, ptr, ptr, ptr, ptr, ptr, ptr, [11 x i32], i32, i32, i32, i32, ptr, i32, ptr, ptr, i32, i32, i32, double, i32, %struct.Vec_Int_t_, ptr, ptr, ptr, ptr, ptr, float, i32, ptr, ptr, ptr, ptr, ptr, ptr, ptr, ptr, ptr, ptr, ptr, ptr, ptr, ptr, ptr, ptr, ptr, ptr, ptr, ptr, ptr, ptr }
%struct.Vec_Int_t_ = type { i32, i32, ptr }
%struct.Vec_Ptr_t_ = type { i32, i32, ptr }
%struct.Abc_Obj_t_ = type { ptr, ptr, i32, i32, %struct.Vec_Int_t_, %struct.Vec_Int_t_, %union.anon, %union.anon.0 }
%union.anon = type { ptr }
%union.anon.0 = type { ptr }

; Function Attrs: inlinehint nounwind uwtable
define internal ptr @Vec_PtrEntry(ptr noundef %0, i32 noundef %1) #4 {
  %3 = alloca ptr, align 8
  %4 = alloca i32, align 4
  store ptr %0, ptr %3, align 8, !tbaa !42
  store i32 %1, ptr %4, align 4, !tbaa !3
  %5 = load ptr, ptr %3, align 8, !tbaa !42
  %6 = getelementptr inbounds nuw %struct.Vec_Ptr_t_, ptr %5, i32 0, i32 2
  %7 = load ptr, ptr %6, align 8, !tbaa !46
  %8 = load i32, ptr %4, align 4, !tbaa !3
  %9 = sext i32 %8 to i64
  %10 = getelementptr inbounds ptr, ptr %7, i64 %9
  %11 = load ptr, ptr %10, align 8, !tbaa !47
  ret ptr %11
}

; Function Attrs: inlinehint nounwind uwtable
define internal ptr @Vec_IntDup(ptr noundef %0) #4 {
  %2 = alloca ptr, align 8
  %3 = alloca ptr, align 8
  store ptr %0, ptr %2, align 8, !tbaa !67
  call void @llvm.lifetime.start.p0(i64 8, ptr %3) #11
  %4 = call noalias ptr @malloc(i64 noundef 16) #12
  store ptr %4, ptr %3, align 8, !tbaa !67
  %5 = load ptr, ptr %2, align 8, !tbaa !67
  %6 = getelementptr inbounds nuw %struct.Vec_Int_t_, ptr %5, i32 0, i32 1
  %7 = load i32, ptr %6, align 4, !tbaa !69
  %8 = load ptr, ptr %3, align 8, !tbaa !67
  %9 = getelementptr inbounds nuw %struct.Vec_Int_t_, ptr %8, i32 0, i32 1
  store i32 %7, ptr %9, align 4, !tbaa !69
  %10 = load ptr, ptr %2, align 8, !tbaa !67
  %11 = getelementptr inbounds nuw %struct.Vec_Int_t_, ptr %10, i32 0, i32 1
  %12 = load i32, ptr %11, align 4, !tbaa !69
  %13 = load ptr, ptr %3, align 8, !tbaa !67
  %14 = getelementptr inbounds nuw %struct.Vec_Int_t_, ptr %13, i32 0, i32 0
  store i32 %12, ptr %14, align 8, !tbaa !70
  %15 = load ptr, ptr %3, align 8, !tbaa !67
  %16 = getelementptr inbounds nuw %struct.Vec_Int_t_, ptr %15, i32 0, i32 0
  %17 = load i32, ptr %16, align 8, !tbaa !70
  %18 = icmp ne i32 %17, 0
  br i1 %18, label %19, label %26

19:                                               ; preds = %1
  %20 = load ptr, ptr %3, align 8, !tbaa !67
  %21 = getelementptr inbounds nuw %struct.Vec_Int_t_, ptr %20, i32 0, i32 0
  %22 = load i32, ptr %21, align 8, !tbaa !70
  %23 = sext i32 %22 to i64
  %24 = mul i64 4, %23
  %25 = call noalias ptr @malloc(i64 noundef %24) #12
  br label %27

26:                                               ; preds = %1
  br label %27

27:                                               ; preds = %26, %19
  %28 = phi ptr [ %25, %19 ], [ null, %26 ]
  %29 = load ptr, ptr %3, align 8, !tbaa !67
  %30 = getelementptr inbounds nuw %struct.Vec_Int_t_, ptr %29, i32 0, i32 2
  store ptr %28, ptr %30, align 8, !tbaa !71
  %31 = load ptr, ptr %3, align 8, !tbaa !67
  %32 = getelementptr inbounds nuw %struct.Vec_Int_t_, ptr %31, i32 0, i32 2
  %33 = load ptr, ptr %32, align 8, !tbaa !71
  %34 = load ptr, ptr %2, align 8, !tbaa !67
  %35 = getelementptr inbounds nuw %struct.Vec_Int_t_, ptr %34, i32 0, i32 2
  %36 = load ptr, ptr %35, align 8, !tbaa !71
  %37 = load ptr, ptr %2, align 8, !tbaa !67
  %38 = getelementptr inbounds nuw %struct.Vec_Int_t_, ptr %37, i32 0, i32 1
  %39 = load i32, ptr %38, align 4, !tbaa !69
  %40 = sext i32 %39 to i64
  %41 = mul i64 4, %40
  call void @llvm.memcpy.p0.p0.i64(ptr align 4 %33, ptr align 4 %36, i64 %41, i1 false)
  %42 = load ptr, ptr %3, align 8, !tbaa !67
  call void @llvm.lifetime.end.p0(i64 8, ptr %3) #11
  ret ptr %42
}

; Function Attrs: inlinehint nounwind uwtable
define internal i32 @Abc_ObjIsLatch(ptr noundef %0) #4 {
  %2 = alloca ptr, align 8
  store ptr %0, ptr %2, align 8, !tbaa !53
  %3 = load ptr, ptr %2, align 8, !tbaa !53
  %4 = getelementptr inbounds nuw %struct.Abc_Obj_t_, ptr %3, i32 0, i32 3
  %5 = load i32, ptr %4, align 4
  %6 = and i32 %5, 15
  %7 = icmp eq i32 %6, 8
  %8 = zext i1 %7 to i32
  ret i32 %8
}

; Function Attrs: inlinehint nounwind uwtable
define internal ptr @Abc_NtkBox(ptr noundef %0, i32 noundef %1) #4 {
  %3 = alloca ptr, align 8
  %4 = alloca i32, align 4
  store ptr %0, ptr %3, align 8, !tbaa !7
  store i32 %1, ptr %4, align 4, !tbaa !3
  %5 = load ptr, ptr %3, align 8, !tbaa !7
  %6 = getelementptr inbounds nuw %struct.Abc_Ntk_t_, ptr %5, i32 0, i32 11
  %7 = load ptr, ptr %6, align 8, !tbaa !33
  %8 = load i32, ptr %4, align 4, !tbaa !3
  %9 = call ptr @Vec_PtrEntry(ptr noundef %7, i32 noundef %8)
  ret ptr %9
}

; Function Attrs: inlinehint nounwind uwtable
define internal i32 @Vec_PtrSize(ptr noundef %0) #4 {
  %2 = alloca ptr, align 8
  store ptr %0, ptr %2, align 8, !tbaa !42
  %3 = load ptr, ptr %2, align 8, !tbaa !42
  %4 = getelementptr inbounds nuw %struct.Vec_Ptr_t_, ptr %3, i32 0, i32 1
  %5 = load i32, ptr %4, align 4, !tbaa !43
  ret i32 %5
}

; Function Attrs: inlinehint nounwind uwtable
define internal ptr @Abc_NtkPo(ptr noundef %0, i32 noundef %1) #4 {
  %3 = alloca ptr, align 8
  %4 = alloca i32, align 4
  store ptr %0, ptr %3, align 8, !tbaa !7
  store i32 %1, ptr %4, align 4, !tbaa !3
  %5 = load ptr, ptr %3, align 8, !tbaa !7
  %6 = getelementptr inbounds nuw %struct.Abc_Ntk_t_, ptr %5, i32 0, i32 7
  %7 = load ptr, ptr %6, align 8, !tbaa !30
  %8 = load i32, ptr %4, align 4, !tbaa !3
  %9 = call ptr @Vec_PtrEntry(ptr noundef %7, i32 noundef %8)
  ret ptr %9
}

; Function Attrs: inlinehint nounwind uwtable
define internal i32 @Abc_NtkPoNum(ptr noundef %0) #4 {
  %2 = alloca ptr, align 8
  store ptr %0, ptr %2, align 8, !tbaa !7
  %3 = load ptr, ptr %2, align 8, !tbaa !7
  %4 = getelementptr inbounds nuw %struct.Abc_Ntk_t_, ptr %3, i32 0, i32 7
  %5 = load ptr, ptr %4, align 8, !tbaa !30
  %6 = call i32 @Vec_PtrSize(ptr noundef %5)
  ret i32 %6
}

; Function Attrs: inlinehint nounwind uwtable
define internal ptr @Abc_NtkPi(ptr noundef %0, i32 noundef %1) #4 {
  %3 = alloca ptr, align 8
  %4 = alloca i32, align 4
  store ptr %0, ptr %3, align 8, !tbaa !7
  store i32 %1, ptr %4, align 4, !tbaa !3
  %5 = load ptr, ptr %3, align 8, !tbaa !7
  %6 = getelementptr inbounds nuw %struct.Abc_Ntk_t_, ptr %5, i32 0, i32 6
  %7 = load ptr, ptr %6, align 8, !tbaa !29
  %8 = load i32, ptr %4, align 4, !tbaa !3
  %9 = call ptr @Vec_PtrEntry(ptr noundef %7, i32 noundef %8)
  ret ptr %9
}

; Function Attrs: inlinehint nounwind uwtable
define internal i32 @Abc_NtkPiNum(ptr noundef %0) #4 {
  %2 = alloca ptr, align 8
  store ptr %0, ptr %2, align 8, !tbaa !7
  %3 = load ptr, ptr %2, align 8, !tbaa !7
  %4 = getelementptr inbounds nuw %struct.Abc_Ntk_t_, ptr %3, i32 0, i32 6
  %5 = load ptr, ptr %4, align 8, !tbaa !29
  %6 = call i32 @Vec_PtrSize(ptr noundef %5)
  ret i32 %6
}

; Function Attrs: inlinehint nounwind uwtable
define internal i32 @Abc_NtkIsStrash(ptr noundef %0) #4 {
  %2 = alloca ptr, align 8
  store ptr %0, ptr %2, align 8, !tbaa !7
  %3 = load ptr, ptr %2, align 8, !tbaa !7
  %4 = getelementptr inbounds nuw %struct.Abc_Ntk_t_, ptr %3, i32 0, i32 0
  %5 = load i32, ptr %4, align 8, !tbaa !10
  %6 = icmp eq i32 %5, 3
  %7 = zext i1 %6 to i32
  ret i32 %7
}

; Function Attrs: nounwind uwtable
define ptr @Abc_NtkStartFromNoLatches(ptr noundef %0, i32 noundef %1, i32 noundef %2) #0 {
  %4 = alloca ptr, align 8
  %5 = alloca ptr, align 8
  %6 = alloca i32, align 4
  %7 = alloca i32, align 4
  %8 = alloca ptr, align 8
  %9 = alloca ptr, align 8
  %10 = alloca i32, align 4
  %11 = alloca i32, align 4
  store ptr %0, ptr %5, align 8, !tbaa !7
  store i32 %1, ptr %6, align 4, !tbaa !3
  store i32 %2, ptr %7, align 4, !tbaa !3
  call void @llvm.lifetime.start.p0(i64 8, ptr %8) #11
  call void @llvm.lifetime.start.p0(i64 8, ptr %9) #11
  call void @llvm.lifetime.start.p0(i64 4, ptr %10) #11
  %12 = load ptr, ptr %5, align 8, !tbaa !7
  %13 = icmp eq ptr %12, null
  br i1 %13, label %14, label %15

14:                                               ; preds = %3
  store ptr null, ptr %4, align 8
  store i32 1, ptr %11, align 4
  br label %140

15:                                               ; preds = %3
  %16 = load i32, ptr %6, align 4, !tbaa !3
  %17 = load i32, ptr %7, align 4, !tbaa !3
  %18 = call ptr @Abc_NtkAlloc(i32 noundef %16, i32 noundef %17, i32 noundef 1)
  store ptr %18, ptr %8, align 8, !tbaa !7
  %19 = load ptr, ptr %5, align 8, !tbaa !7
  %20 = getelementptr inbounds nuw %struct.Abc_Ntk_t_, ptr %19, i32 0, i32 15
  %21 = load i32, ptr %20, align 8, !tbaa !48
  %22 = load ptr, ptr %8, align 8, !tbaa !7
  %23 = getelementptr inbounds nuw %struct.Abc_Ntk_t_, ptr %22, i32 0, i32 15
  store i32 %21, ptr %23, align 8, !tbaa !48
  %24 = load ptr, ptr %5, align 8, !tbaa !7
  %25 = getelementptr inbounds nuw %struct.Abc_Ntk_t_, ptr %24, i32 0, i32 16
  %26 = load i32, ptr %25, align 4, !tbaa !49
  %27 = load ptr, ptr %8, align 8, !tbaa !7
  %28 = getelementptr inbounds nuw %struct.Abc_Ntk_t_, ptr %27, i32 0, i32 16
  store i32 %26, ptr %28, align 4, !tbaa !49
  %29 = load ptr, ptr %5, align 8, !tbaa !7
  %30 = getelementptr inbounds nuw %struct.Abc_Ntk_t_, ptr %29, i32 0, i32 2
  %31 = load ptr, ptr %30, align 8, !tbaa !50
  %32 = call ptr @Extra_UtilStrsav(ptr noundef %31)
  %33 = load ptr, ptr %8, align 8, !tbaa !7
  %34 = getelementptr inbounds nuw %struct.Abc_Ntk_t_, ptr %33, i32 0, i32 2
  store ptr %32, ptr %34, align 8, !tbaa !50
  %35 = load ptr, ptr %5, align 8, !tbaa !7
  %36 = getelementptr inbounds nuw %struct.Abc_Ntk_t_, ptr %35, i32 0, i32 3
  %37 = load ptr, ptr %36, align 8, !tbaa !51
  %38 = call ptr @Extra_UtilStrsav(ptr noundef %37)
  %39 = load ptr, ptr %8, align 8, !tbaa !7
  %40 = getelementptr inbounds nuw %struct.Abc_Ntk_t_, ptr %39, i32 0, i32 3
  store ptr %38, ptr %40, align 8, !tbaa !51
  %41 = load ptr, ptr %5, align 8, !tbaa !7
  call void @Abc_NtkCleanCopy(ptr noundef %41)
  %42 = load ptr, ptr %5, align 8, !tbaa !7
  %43 = call i32 @Abc_NtkIsStrash(ptr noundef %42)
  %44 = icmp ne i32 %43, 0
  br i1 %44, label %45, label %55

45:                                               ; preds = %15
  %46 = load ptr, ptr %8, align 8, !tbaa !7
  %47 = call i32 @Abc_NtkIsStrash(ptr noundef %46)
  %48 = icmp ne i32 %47, 0
  br i1 %48, label %49, label %55

49:                                               ; preds = %45
  %50 = load ptr, ptr %8, align 8, !tbaa !7
  %51 = call ptr @Abc_AigConst1(ptr noundef %50)
  %52 = load ptr, ptr %5, align 8, !tbaa !7
  %53 = call ptr @Abc_AigConst1(ptr noundef %52)
  %54 = getelementptr inbounds nuw %struct.Abc_Obj_t_, ptr %53, i32 0, i32 7
  store ptr %51, ptr %54, align 8, !tbaa !52
  br label %55

55:                                               ; preds = %49, %45, %15
  store i32 0, ptr %10, align 4, !tbaa !3
  br label %56

56:                                               ; preds = %71, %55
  %57 = load i32, ptr %10, align 4, !tbaa !3
  %58 = load ptr, ptr %5, align 8, !tbaa !7
  %59 = call i32 @Abc_NtkPiNum(ptr noundef %58)
  %60 = icmp slt i32 %57, %59
  br i1 %60, label %61, label %65

61:                                               ; preds = %56
  %62 = load ptr, ptr %5, align 8, !tbaa !7
  %63 = load i32, ptr %10, align 4, !tbaa !3
  %64 = call ptr @Abc_NtkPi(ptr noundef %62, i32 noundef %63)
  store ptr %64, ptr %9, align 8, !tbaa !53
  br label %65

65:                                               ; preds = %61, %56
  %66 = phi i1 [ false, %56 ], [ true, %61 ]
  br i1 %66, label %67, label %74

67:                                               ; preds = %65
  %68 = load ptr, ptr %8, align 8, !tbaa !7
  %69 = load ptr, ptr %9, align 8, !tbaa !53
  %70 = call ptr @Abc_NtkDupObj(ptr noundef %68, ptr noundef %69, i32 noundef 1)
  br label %71

71:                                               ; preds = %67
  %72 = load i32, ptr %10, align 4, !tbaa !3
  %73 = add nsw i32 %72, 1
  store i32 %73, ptr %10, align 4, !tbaa !3
  br label %56, !llvm.loop !77

74:                                               ; preds = %65
  store i32 0, ptr %10, align 4, !tbaa !3
  br label %75

75:                                               ; preds = %90, %74
  %76 = load i32, ptr %10, align 4, !tbaa !3
  %77 = load ptr, ptr %5, align 8, !tbaa !7
  %78 = call i32 @Abc_NtkPoNum(ptr noundef %77)
  %79 = icmp slt i32 %76, %78
  br i1 %79, label %80, label %84

80:                                               ; preds = %75
  %81 = load ptr, ptr %5, align 8, !tbaa !7
  %82 = load i32, ptr %10, align 4, !tbaa !3
  %83 = call ptr @Abc_NtkPo(ptr noundef %81, i32 noundef %82)
  store ptr %83, ptr %9, align 8, !tbaa !53
  br label %84

84:                                               ; preds = %80, %75
  %85 = phi i1 [ false, %75 ], [ true, %80 ]
  br i1 %85, label %86, label %93

86:                                               ; preds = %84
  %87 = load ptr, ptr %8, align 8, !tbaa !7
  %88 = load ptr, ptr %9, align 8, !tbaa !53
  %89 = call ptr @Abc_NtkDupObj(ptr noundef %87, ptr noundef %88, i32 noundef 1)
  br label %90

90:                                               ; preds = %86
  %91 = load i32, ptr %10, align 4, !tbaa !3
  %92 = add nsw i32 %91, 1
  store i32 %92, ptr %10, align 4, !tbaa !3
  br label %75, !llvm.loop !78

93:                                               ; preds = %84
  store i32 0, ptr %10, align 4, !tbaa !3
  br label %94

94:                                               ; preds = %116, %93
  %95 = load i32, ptr %10, align 4, !tbaa !3
  %96 = load ptr, ptr %5, align 8, !tbaa !7
  %97 = getelementptr inbounds nuw %struct.Abc_Ntk_t_, ptr %96, i32 0, i32 11
  %98 = load ptr, ptr %97, align 8, !tbaa !33
  %99 = call i32 @Vec_PtrSize(ptr noundef %98)
  %100 = icmp slt i32 %95, %99
  br i1 %100, label %101, label %105

101:                                              ; preds = %94
  %102 = load ptr, ptr %5, align 8, !tbaa !7
  %103 = load i32, ptr %10, align 4, !tbaa !3
  %104 = call ptr @Abc_NtkBox(ptr noundef %102, i32 noundef %103)
  store ptr %104, ptr %9, align 8, !tbaa !53
  br label %105

105:                                              ; preds = %101, %94
  %106 = phi i1 [ false, %94 ], [ true, %101 ]
  br i1 %106, label %107, label %119

107:                                              ; preds = %105
  %108 = load ptr, ptr %9, align 8, !tbaa !53
  %109 = call i32 @Abc_ObjIsLatch(ptr noundef %108)
  %110 = icmp ne i32 %109, 0
  br i1 %110, label %111, label %112

111:                                              ; preds = %107
  br label %116

112:                                              ; preds = %107
  %113 = load ptr, ptr %8, align 8, !tbaa !7
  %114 = load ptr, ptr %9, align 8, !tbaa !53
  %115 = call ptr @Abc_NtkDupBox(ptr noundef %113, ptr noundef %114, i32 noundef 1)
  br label %116

116:                                              ; preds = %112, %111
  %117 = load i32, ptr %10, align 4, !tbaa !3
  %118 = add nsw i32 %117, 1
  store i32 %118, ptr %10, align 4, !tbaa !3
  br label %94, !llvm.loop !79

119:                                              ; preds = %105
  %120 = load ptr, ptr %5, align 8, !tbaa !7
  %121 = getelementptr inbounds nuw %struct.Abc_Ntk_t_, ptr %120, i32 0, i32 51
  %122 = load ptr, ptr %121, align 8, !tbaa !62
  %123 = icmp ne ptr %122, null
  br i1 %123, label %124, label %131

124:                                              ; preds = %119
  %125 = load ptr, ptr %5, align 8, !tbaa !7
  %126 = getelementptr inbounds nuw %struct.Abc_Ntk_t_, ptr %125, i32 0, i32 51
  %127 = load ptr, ptr %126, align 8, !tbaa !62
  %128 = call ptr @Vec_IntDup(ptr noundef %127)
  %129 = load ptr, ptr %8, align 8, !tbaa !7
  %130 = getelementptr inbounds nuw %struct.Abc_Ntk_t_, ptr %129, i32 0, i32 51
  store ptr %128, ptr %130, align 8, !tbaa !62
  br label %131

131:                                              ; preds = %124, %119
  %132 = load ptr, ptr %5, align 8, !tbaa !7
  %133 = getelementptr inbounds nuw %struct.Abc_Ntk_t_, ptr %132, i32 0, i32 33
  %134 = load float, ptr %133, align 8, !tbaa !41
  %135 = load ptr, ptr %8, align 8, !tbaa !7
  %136 = getelementptr inbounds nuw %struct.Abc_Ntk_t_, ptr %135, i32 0, i32 33
  store float %134, ptr %136, align 8, !tbaa !41
  %137 = load ptr, ptr %5, align 8, !tbaa !7
  %138 = load ptr, ptr %8, align 8, !tbaa !7
  call void @Abc_ManTimeDup(ptr noundef %137, ptr noundef %138)
  %139 = load ptr, ptr %8, align 8, !tbaa !7
  store ptr %139, ptr %4, align 8
  store i32 1, ptr %11, align 4
  br label %140

140:                                              ; preds = %131, %14
  call void @llvm.lifetime.end.p0(i64 4, ptr %10) #11
  call void @llvm.lifetime.end.p0(i64 8, ptr %9) #11
  call void @llvm.lifetime.end.p0(i64 8, ptr %8) #11
  %141 = load ptr, ptr %4, align 8
  ret ptr %141
}