; Function Attrs: nounwind uwtable
define noundef ptr @Abc_NtkStartFromNoLatches(ptr noundef %0, i32 noundef %1, i32 noundef %2) local_unnamed_addr #0 {
  %4 = icmp eq ptr %0, null
  br i1 %4, label %83, label %5

5:                                                ; preds = %3
  %6 = tail call ptr @Abc_NtkAlloc(i32 noundef %1, i32 noundef %2, i32 noundef 1)
  %7 = getelementptr inbounds nuw i8, ptr %0, i64 144
  %8 = load i32, ptr %7, align 8, !tbaa !45
  %9 = getelementptr inbounds nuw i8, ptr %6, i64 144
  store i32 %8, ptr %9, align 8, !tbaa !45
  %10 = getelementptr inbounds nuw i8, ptr %0, i64 148
  %11 = load i32, ptr %10, align 4, !tbaa !46
  %12 = getelementptr inbounds nuw i8, ptr %6, i64 148
  store i32 %11, ptr %12, align 4, !tbaa !46
  %13 = getelementptr inbounds nuw i8, ptr %0, i64 8
  %14 = load ptr, ptr %13, align 8, !tbaa !47
  %15 = tail call ptr @Extra_UtilStrsav(ptr noundef %14) #20
  %16 = getelementptr inbounds nuw i8, ptr %6, i64 8
  store ptr %15, ptr %16, align 8, !tbaa !47
  %17 = getelementptr inbounds nuw i8, ptr %0, i64 16
  %18 = load ptr, ptr %17, align 8, !tbaa !48
  %19 = tail call ptr @Extra_UtilStrsav(ptr noundef %18) #20
  %20 = getelementptr inbounds nuw i8, ptr %6, i64 16
  store ptr %19, ptr %20, align 8, !tbaa !48
  tail call void @Abc_NtkCleanCopy(ptr noundef nonnull %0) #20
  %.val56 = load i32, ptr %0, align 8, !tbaa !3
  %.not = icmp eq i32 %.val56, 3
  br i1 %.not, label %21, label %26

21:                                               ; preds = %5
  %.val = load i32, ptr %6, align 8, !tbaa !3
  %.not64 = icmp eq i32 %.val, 3
  br i1 %.not64, label %22, label %26

22:                                               ; preds = %21
  %23 = tail call ptr @Abc_AigConst1(ptr noundef nonnull %6) #20
  %24 = tail call ptr @Abc_AigConst1(ptr noundef nonnull %0) #20
  %25 = getelementptr inbounds nuw i8, ptr %24, i64 64
  store ptr %23, ptr %25, align 8, !tbaa !49
  br label %26

26:                                               ; preds = %22, %21, %5
  %27 = getelementptr i8, ptr %0, i64 40
  %.val5866 = load ptr, ptr %27, align 8, !tbaa !31
  %28 = getelementptr i8, ptr %.val5866, i64 4
  %.val58.val67 = load i32, ptr %28, align 4, !tbaa !25
  %29 = icmp sgt i32 %.val58.val67, 0
  br i1 %29, label %.lr.ph, label %.critedge.preheader

.critedge.preheader:                              ; preds = %.lr.ph, %26
  %30 = getelementptr i8, ptr %0, i64 48
  %.val6070 = load ptr, ptr %30, align 8, !tbaa !32
  %31 = getelementptr i8, ptr %.val6070, i64 4
  %.val60.val71 = load i32, ptr %31, align 4, !tbaa !25
  %32 = icmp sgt i32 %.val60.val71, 0
  br i1 %32, label %.critedge, label %.critedge2.preheader

.lr.ph:                                           ; preds = %26, %.lr.ph
  %indvars.iv = phi i64 [ %indvars.iv.next, %.lr.ph ], [ 0, %26 ]
  %.val5869 = phi ptr [ %.val58, %.lr.ph ], [ %.val5866, %26 ]
  %33 = getelementptr i8, ptr %.val5869, i64 8
  %.val59.val = load ptr, ptr %33, align 8, !tbaa !28
  %34 = getelementptr inbounds nuw ptr, ptr %.val59.val, i64 %indvars.iv
  %35 = load ptr, ptr %34, align 8, !tbaa !40
  %36 = tail call ptr @Abc_NtkDupObj(ptr noundef %6, ptr noundef %35, i32 noundef 1) #20
  %indvars.iv.next = add nuw nsw i64 %indvars.iv, 1
  %.val58 = load ptr, ptr %27, align 8, !tbaa !31
  %37 = getelementptr i8, ptr %.val58, i64 4
  %.val58.val = load i32, ptr %37, align 4, !tbaa !25
  %38 = sext i32 %.val58.val to i64
  %39 = icmp slt i64 %indvars.iv.next, %38
  br i1 %39, label %.lr.ph, label %.critedge.preheader, !llvm.loop !72

.critedge2.preheader:                             ; preds = %.critedge, %.critedge.preheader
  %40 = getelementptr inbounds nuw i8, ptr %0, i64 80
  %41 = load ptr, ptr %40, align 8, !tbaa !35
  %42 = getelementptr i8, ptr %41, i64 4
  %.val5775 = load i32, ptr %42, align 4, !tbaa !25
  %43 = icmp sgt i32 %.val5775, 0
  br i1 %43, label %.lr.ph77, label %.critedge4

.critedge:                                        ; preds = %.critedge.preheader, %.critedge
  %indvars.iv80 = phi i64 [ %indvars.iv.next81, %.critedge ], [ 0, %.critedge.preheader ]
  %.val6073 = phi ptr [ %.val60, %.critedge ], [ %.val6070, %.critedge.preheader ]
  %44 = getelementptr i8, ptr %.val6073, i64 8
  %.val61.val = load ptr, ptr %44, align 8, !tbaa !28
  %45 = getelementptr inbounds nuw ptr, ptr %.val61.val, i64 %indvars.iv80
  %46 = load ptr, ptr %45, align 8, !tbaa !40
  %47 = tail call ptr @Abc_NtkDupObj(ptr noundef %6, ptr noundef %46, i32 noundef 1) #20
  %indvars.iv.next81 = add nuw nsw i64 %indvars.iv80, 1
  %.val60 = load ptr, ptr %30, align 8, !tbaa !32
  %48 = getelementptr i8, ptr %.val60, i64 4
  %.val60.val = load i32, ptr %48, align 4, !tbaa !25
  %49 = sext i32 %.val60.val to i64
  %50 = icmp slt i64 %indvars.iv.next81, %49
  br i1 %50, label %.critedge, label %.critedge2.preheader, !llvm.loop !73

.lr.ph77:                                         ; preds = %.critedge2.preheader, %.critedge2
  %51 = phi ptr [ %59, %.critedge2 ], [ %41, %.critedge2.preheader ]
  %indvars.iv83 = phi i64 [ %indvars.iv.next84, %.critedge2 ], [ 0, %.critedge2.preheader ]
  %52 = getelementptr i8, ptr %51, i64 8
  %.val62.val = load ptr, ptr %52, align 8, !tbaa !28
  %53 = getelementptr inbounds nuw ptr, ptr %.val62.val, i64 %indvars.iv83
  %54 = load ptr, ptr %53, align 8, !tbaa !40
  %55 = getelementptr i8, ptr %54, i64 20
  %.val63 = load i32, ptr %55, align 4
  %56 = and i32 %.val63, 15
  %.not65 = icmp eq i32 %56, 8
  br i1 %.not65, label %.critedge2, label %57

57:                                               ; preds = %.lr.ph77
  %58 = tail call ptr @Abc_NtkDupBox(ptr noundef %6, ptr noundef nonnull %54, i32 noundef 1) #20
  %.pre = load ptr, ptr %40, align 8, !tbaa !35
  br label %.critedge2

.critedge2:                                       ; preds = %.lr.ph77, %57
  %59 = phi ptr [ %51, %.lr.ph77 ], [ %.pre, %57 ]
  %indvars.iv.next84 = add nuw nsw i64 %indvars.iv83, 1
  %60 = getelementptr i8, ptr %59, i64 4
  %.val57 = load i32, ptr %60, align 4, !tbaa !25
  %61 = sext i32 %.val57 to i64
  %62 = icmp slt i64 %indvars.iv.next84, %61
  br i1 %62, label %.lr.ph77, label %.critedge4, !llvm.loop !74

.critedge4:                                       ; preds = %.critedge2, %.critedge2.preheader
  %63 = getelementptr inbounds nuw i8, ptr %0, i64 416
  %64 = load ptr, ptr %63, align 8, !tbaa !58
  %.not54 = icmp eq ptr %64, null
  br i1 %.not54, label %79, label %65

65:                                               ; preds = %.critedge4
  %66 = tail call noalias dereferenceable_or_null(16) ptr @malloc(i64 noundef 16) #19
  %67 = getelementptr inbounds nuw i8, ptr %64, i64 4
  %68 = load i32, ptr %67, align 4, !tbaa !59
  %69 = getelementptr inbounds nuw i8, ptr %66, i64 4
  store i32 %68, ptr %69, align 4, !tbaa !59
  store i32 %68, ptr %66, align 8, !tbaa !60
  %.not.i = icmp eq i32 %68, 0
  br i1 %.not.i, label %Vec_IntDup.exit, label %70

70:                                               ; preds = %65
  %71 = sext i32 %68 to i64
  %72 = shl nsw i64 %71, 2
  %73 = tail call noalias ptr @malloc(i64 noundef %72) #19
  br label %Vec_IntDup.exit

Vec_IntDup.exit:                                  ; preds = %65, %70
  %.pre-phi12.i = phi i64 [ %72, %70 ], [ 0, %65 ]
  %74 = phi ptr [ %73, %70 ], [ null, %65 ]
  %75 = getelementptr inbounds nuw i8, ptr %66, i64 8
  store ptr %74, ptr %75, align 8, !tbaa !61
  %76 = getelementptr inbounds nuw i8, ptr %64, i64 8
  %77 = load ptr, ptr %76, align 8, !tbaa !61
  tail call void @llvm.memcpy.p0.p0.i64(ptr align 4 %74, ptr align 4 %77, i64 %.pre-phi12.i, i1 false)
  %78 = getelementptr inbounds nuw i8, ptr %6, i64 416
  store ptr %66, ptr %78, align 8, !tbaa !58
  br label %79

79:                                               ; preds = %Vec_IntDup.exit, %.critedge4
  %80 = getelementptr inbounds nuw i8, ptr %0, i64 280
  %81 = load float, ptr %80, align 8, !tbaa !44
  %82 = getelementptr inbounds nuw i8, ptr %6, i64 280
  store float %81, ptr %82, align 8, !tbaa !44
  tail call void @Abc_ManTimeDup(ptr noundef nonnull %0, ptr noundef %6) #20
  br label %83

83:                                               ; preds = %3, %79
  %.050 = phi ptr [ %6, %79 ], [ null, %3 ]
  ret ptr %.050
}